---
triple:          'arm64-apple-darwin'
binary-path:     '/Users/blog/C++_learning/STL/map/m1'
relocations:
  - { offsetInCU: 0x50A1, offset: 0x50A1, size: 0x8, addend: 0x0, symName: __ZNSt3__124__put_character_sequenceB8ue170006IcNS_11char_traitsIcEEEERNS_13basic_ostreamIT_T0_EES7_PKS4_m, symObjAddr: 0x9AC, symBinAddr: 0x100004588, symSize: 0x1EC }
  - { offsetInCU: 0x6AC4, offset: 0x6AC4, size: 0x8, addend: 0x0, symName: __ZNSt3__17advanceB8ue170006INS_21__tree_const_iteratorINS_12__value_typeIiiEEPNS_11__tree_nodeIS3_PvEElEEllvEEvRT_T0_, symObjAddr: 0x3B34, symBinAddr: 0x100007710, symSize: 0x38 }
  - { offsetInCU: 0x7652, offset: 0x7652, size: 0x8, addend: 0x0, symName: __ZNSt3__1neB8ue170006ERKNS_14__map_iteratorINS_15__tree_iteratorINS_12__value_typeIiiEEPNS_11__tree_nodeIS3_PvEElEEEESB_, symObjAddr: 0x114, symBinAddr: 0x100003CF0, symSize: 0x30 }
  - { offsetInCU: 0x768F, offset: 0x768F, size: 0x8, addend: 0x0, symName: __ZNSt3__1lsB8ue170006INS_11char_traitsIcEEEERNS_13basic_ostreamIcT_EES6_PKc, symObjAddr: 0x17C, symBinAddr: 0x100003D58, symSize: 0x48 }
  - { offsetInCU: 0x76D5, offset: 0x76D5, size: 0x8, addend: 0x0, symName: __ZNSt3__14endlB8ue170006IcNS_11char_traitsIcEEEERNS_13basic_ostreamIT_T0_EES7_, symObjAddr: 0x218, symBinAddr: 0x100003DF4, symSize: 0x58 }
  - { offsetInCU: 0x781C, offset: 0x781C, size: 0x8, addend: 0x0, symName: __ZNSt3__1neB8ue170006ERKNS_15__tree_iteratorINS_12__value_typeIiiEEPNS_11__tree_nodeIS2_PvEElEES9_, symObjAddr: 0x7C4, symBinAddr: 0x1000043A0, symSize: 0x34 }
  - { offsetInCU: 0x7859, offset: 0x7859, size: 0x8, addend: 0x0, symName: __ZNSt3__1eqB8ue170006ERKNS_15__tree_iteratorINS_12__value_typeIiiEEPNS_11__tree_nodeIS2_PvEElEES9_, symObjAddr: 0x7F8, symBinAddr: 0x1000043D4, symSize: 0x30 }
  - { offsetInCU: 0x7896, offset: 0x7896, size: 0x8, addend: 0x0, symName: __ZNSt3__116__tree_next_iterB8ue170006IPNS_15__tree_end_nodeIPNS_16__tree_node_baseIPvEEEES5_EET_T0_, symObjAddr: 0x88C, symBinAddr: 0x100004468, symSize: 0x90 }
  - { offsetInCU: 0x78D4, offset: 0x78D4, size: 0x8, addend: 0x0, symName: __ZNSt3__110__tree_minB8ue170006IPNS_16__tree_node_baseIPvEEEET_S5_, symObjAddr: 0x91C, symBinAddr: 0x1000044F8, symSize: 0x40 }
  - { offsetInCU: 0x7909, offset: 0x7909, size: 0x8, addend: 0x0, symName: __ZNSt3__120__tree_is_left_childB8ue170006IPNS_16__tree_node_baseIPvEEEEbT_, symObjAddr: 0x95C, symBinAddr: 0x100004538, symSize: 0x2C }
  - { offsetInCU: 0x793E, offset: 0x793E, size: 0x8, addend: 0x0, symName: __ZNSt3__116__pad_and_outputB8ue170006IcNS_11char_traitsIcEEEENS_19ostreambuf_iteratorIT_T0_EES6_PKS4_S8_S8_RNS_8ios_baseES4_, symObjAddr: 0xBE8, symBinAddr: 0x1000047C4, symSize: 0x240 }
  - { offsetInCU: 0x7A0D, offset: 0x7A0D, size: 0x8, addend: 0x0, symName: __ZNSt3__112__to_addressB8ue170006IKcEEPT_S3_, symObjAddr: 0x1150, symBinAddr: 0x100004D2C, symSize: 0x14 }
  - { offsetInCU: 0x7A75, offset: 0x7A75, size: 0x8, addend: 0x0, symName: __ZNSt3__19use_facetB8ue170006INS_5ctypeIcEEEERKT_RKNS_6localeE, symObjAddr: 0x13D0, symBinAddr: 0x100004FAC, symSize: 0x2C }
  - { offsetInCU: 0x7F42, offset: 0x7F42, size: 0x8, addend: 0x0, symName: __ZNSt3__118__constexpr_strlenB8ue170006EPKc, symObjAddr: 0x1468, symBinAddr: 0x100005044, symSize: 0x24 }
  - { offsetInCU: 0x7FA1, offset: 0x7FA1, size: 0x8, addend: 0x0, symName: __ZNSt3__119__libcpp_deallocateB8ue170006EPvmm, symObjAddr: 0x1A94, symBinAddr: 0x100005670, symSize: 0x30 }
  - { offsetInCU: 0x7FE9, offset: 0x7FE9, size: 0x8, addend: 0x0, symName: __ZNSt3__127__do_deallocate_handle_sizeB8ue170006IJEEEvPvmDpT_, symObjAddr: 0x1AC4, symBinAddr: 0x1000056A0, symSize: 0x28 }
  - { offsetInCU: 0x8027, offset: 0x8027, size: 0x8, addend: 0x0, symName: __ZNSt3__124__libcpp_operator_deleteB8ue170006IJPvEEEvDpT_, symObjAddr: 0x1AEC, symBinAddr: 0x1000056C8, symSize: 0x24 }
  - { offsetInCU: 0x8083, offset: 0x8083, size: 0x8, addend: 0x0, symName: __ZNSt3__117__libcpp_allocateB8ue170006Emm, symObjAddr: 0x24F8, symBinAddr: 0x1000060D4, symSize: 0x28 }
  - { offsetInCU: 0x80C0, offset: 0x80C0, size: 0x8, addend: 0x0, symName: __ZNSt3__121__libcpp_operator_newB8ue170006IJmEEEPvDpT_, symObjAddr: 0x2538, symBinAddr: 0x100006114, symSize: 0x24 }
  - { offsetInCU: 0x80F9, offset: 0x80F9, size: 0x8, addend: 0x0, symName: __ZNSt3__127__tree_balance_after_insertB8ue170006IPNS_16__tree_node_baseIPvEEEEvT_S5_, symObjAddr: 0x27B0, symBinAddr: 0x10000638C, symSize: 0x27C }
  - { offsetInCU: 0x8175, offset: 0x8175, size: 0x8, addend: 0x0, symName: __ZNSt3__118__tree_left_rotateB8ue170006IPNS_16__tree_node_baseIPvEEEEvT_, symObjAddr: 0x2A54, symBinAddr: 0x100006630, symSize: 0xD8 }
  - { offsetInCU: 0x81B7, offset: 0x81B7, size: 0x8, addend: 0x0, symName: __ZNSt3__119__tree_right_rotateB8ue170006IPNS_16__tree_node_baseIPvEEEEvT_, symObjAddr: 0x2B2C, symBinAddr: 0x100006708, symSize: 0xCC }
  - { offsetInCU: 0x81F9, offset: 0x81F9, size: 0x8, addend: 0x0, symName: __ZNSt3__1neB8ue170006ERKNS_20__map_const_iteratorINS_21__tree_const_iteratorINS_12__value_typeIiiEEPNS_11__tree_nodeIS3_PvEElEEEESB_, symObjAddr: 0x3270, symBinAddr: 0x100006E4C, symSize: 0x30 }
  - { offsetInCU: 0x8236, offset: 0x8236, size: 0x8, addend: 0x0, symName: __ZNSt3__1neB8ue170006ERKNS_21__tree_const_iteratorINS_12__value_typeIiiEEPNS_11__tree_nodeIS2_PvEElEES9_, symObjAddr: 0x3378, symBinAddr: 0x100006F54, symSize: 0x34 }
  - { offsetInCU: 0x8273, offset: 0x8273, size: 0x8, addend: 0x0, symName: __ZNSt3__1eqB8ue170006ERKNS_21__tree_const_iteratorINS_12__value_typeIiiEEPNS_11__tree_nodeIS2_PvEElEES9_, symObjAddr: 0x33AC, symBinAddr: 0x100006F88, symSize: 0x30 }
  - { offsetInCU: 0x82D4, offset: 0x82D4, size: 0x8, addend: 0x0, symName: __ZNSt3__14nextB8ue170006INS_21__tree_const_iteratorINS_12__value_typeIiiEEPNS_11__tree_nodeIS3_PvEElEEEENS_9enable_ifIXsr29__has_input_iterator_categoryIT_EE5valueESA_E4typeESA_NS_15iterator_traitsISA_E15difference_typeE, symObjAddr: 0x39F8, symBinAddr: 0x1000075D4, symSize: 0x3C }
  - { offsetInCU: 0x8317, offset: 0x8317, size: 0x8, addend: 0x0, symName: __ZNSt3__116__tree_prev_iterB8ue170006IPNS_16__tree_node_baseIPvEEPNS_15__tree_end_nodeIS4_EEEET_T0_, symObjAddr: 0x3A6C, symBinAddr: 0x100007648, symSize: 0x88 }
  - { offsetInCU: 0x8363, offset: 0x8363, size: 0x8, addend: 0x0, symName: __ZNSt3__110__tree_maxB8ue170006IPNS_16__tree_node_baseIPvEEEET_S5_, symObjAddr: 0x3AF4, symBinAddr: 0x1000076D0, symSize: 0x40 }
  - { offsetInCU: 0x8398, offset: 0x8398, size: 0x8, addend: 0x0, symName: __ZNSt3__121__convert_to_integralB8ue170006El, symObjAddr: 0x3B6C, symBinAddr: 0x100007748, symSize: 0x14 }
  - { offsetInCU: 0x83C4, offset: 0x83C4, size: 0x8, addend: 0x0, symName: __ZNSt3__19__advanceB8ue170006INS_21__tree_const_iteratorINS_12__value_typeIiiEEPNS_11__tree_nodeIS3_PvEElEEEEvRT_NS_15iterator_traitsIS9_E15difference_typeENS_26bidirectional_iterator_tagE, symObjAddr: 0x3B80, symBinAddr: 0x10000775C, symSize: 0xA4 }
  - { offsetInCU: 0x85B2, offset: 0x85B2, size: 0x8, addend: 0x0, symName: __ZSt28__throw_bad_array_new_lengthB8ue170006v, symObjAddr: 0x24C4, symBinAddr: 0x1000060A0, symSize: 0x34 }
  - { offsetInCU: 0xAFB8, offset: 0xAFB8, size: 0x8, addend: 0x0, symName: __Z8printMapRNSt3__13mapIiiNS_4lessIiEENS_9allocatorINS_4pairIKiiEEEEEE, symObjAddr: 0x0, symBinAddr: 0x100003BDC, symSize: 0xDC }
  - { offsetInCU: 0xAFFC, offset: 0xAFFC, size: 0x8, addend: 0x0, symName: __ZNSt3__13mapIiiNS_4lessIiEENS_9allocatorINS_4pairIKiiEEEEE5beginB8ue170006Ev, symObjAddr: 0xDC, symBinAddr: 0x100003CB8, symSize: 0x38 }
  - { offsetInCU: 0xB020, offset: 0xB020, size: 0x8, addend: 0x0, symName: __ZNSt3__13mapIiiNS_4lessIiEENS_9allocatorINS_4pairIKiiEEEEE3endB8ue170006Ev, symObjAddr: 0x144, symBinAddr: 0x100003D20, symSize: 0x38 }
  - { offsetInCU: 0xB044, offset: 0xB044, size: 0x8, addend: 0x0, symName: __ZNKSt3__114__map_iteratorINS_15__tree_iteratorINS_12__value_typeIiiEEPNS_11__tree_nodeIS3_PvEElEEEdeB8ue170006Ev, symObjAddr: 0x1C4, symBinAddr: 0x100003DA0, symSize: 0x28 }
  - { offsetInCU: 0xB068, offset: 0xB068, size: 0x8, addend: 0x0, symName: __ZNSt3__113basic_ostreamIcNS_11char_traitsIcEEElsB8ue170006EPFRS3_S4_E, symObjAddr: 0x1EC, symBinAddr: 0x100003DC8, symSize: 0x2C }
  - { offsetInCU: 0xB09A, offset: 0xB09A, size: 0x8, addend: 0x0, symName: __ZNSt3__114__map_iteratorINS_15__tree_iteratorINS_12__value_typeIiiEEPNS_11__tree_nodeIS3_PvEElEEEppB8ue170006Ei, symObjAddr: 0x270, symBinAddr: 0x100003E4C, symSize: 0x34 }
  - { offsetInCU: 0xB0D9, offset: 0xB0D9, size: 0x8, addend: 0x0, symName: __Z6test01v, symObjAddr: 0x2A4, symBinAddr: 0x100003E80, symSize: 0x210 }
  - { offsetInCU: 0xB120, offset: 0xB120, size: 0x8, addend: 0x0, symName: __ZNSt3__13mapIiiNS_4lessIiEENS_9allocatorINS_4pairIKiiEEEEEC1B8ue170006Ev, symObjAddr: 0x4B4, symBinAddr: 0x100004090, symSize: 0x2C }
  - { offsetInCU: 0xB161, offset: 0xB161, size: 0x8, addend: 0x0, symName: __ZNSt3__13mapIiiNS_4lessIiEENS_9allocatorINS_4pairIKiiEEEEE6insertB8ue170006INS4_IiiEEvEENS4_INS_14__map_iteratorINS_15__tree_iteratorINS_12__value_typeIiiEEPNS_11__tree_nodeISE_PvEElEEEEbEEOT_, symObjAddr: 0x4E0, symBinAddr: 0x1000040BC, symSize: 0x4C }
  - { offsetInCU: 0xB1A4, offset: 0xB1A4, size: 0x8, addend: 0x0, symName: __ZNSt3__14pairIiiEC1B8ue170006IiiLPv0EEEOT_OT0_, symObjAddr: 0x52C, symBinAddr: 0x100004108, symSize: 0x3C }
  - { offsetInCU: 0xB201, offset: 0xB201, size: 0x8, addend: 0x0, symName: __ZNSt3__13mapIiiNS_4lessIiEENS_9allocatorINS_4pairIKiiEEEEEC1B8ue170006ERKS8_, symObjAddr: 0x568, symBinAddr: 0x100004144, symSize: 0x34 }
  - { offsetInCU: 0xB239, offset: 0xB239, size: 0x8, addend: 0x0, symName: __ZNSt3__13mapIiiNS_4lessIiEENS_9allocatorINS_4pairIKiiEEEEED1B8ue170006Ev, symObjAddr: 0x59C, symBinAddr: 0x100004178, symSize: 0x2C }
  - { offsetInCU: 0xB262, offset: 0xB262, size: 0x8, addend: 0x0, symName: _main, symObjAddr: 0x5C8, symBinAddr: 0x1000041A4, symSize: 0x2C }
  - { offsetInCU: 0xB27C, offset: 0xB27C, size: 0x8, addend: 0x0, symName: __ZNSt3__14pairIiiEC2B8ue170006IiiLPv0EEEOT_OT0_, symObjAddr: 0x5F4, symBinAddr: 0x1000041D0, symSize: 0x34 }
  - { offsetInCU: 0xB2D8, offset: 0xB2D8, size: 0x8, addend: 0x0, symName: __ZNSt3__16__treeINS_12__value_typeIiiEENS_19__map_value_compareIiS2_NS_4lessIiEELb1EEENS_9allocatorIS2_EEE5beginB8ue170006Ev, symObjAddr: 0x628, symBinAddr: 0x100004204, symSize: 0x34 }
  - { offsetInCU: 0xB2FD, offset: 0xB2FD, size: 0x8, addend: 0x0, symName: __ZNSt3__114__map_iteratorINS_15__tree_iteratorINS_12__value_typeIiiEEPNS_11__tree_nodeIS3_PvEElEEEC1B8ue170006ES8_, symObjAddr: 0x65C, symBinAddr: 0x100004238, symSize: 0x34 }
  - { offsetInCU: 0xB335, offset: 0xB335, size: 0x8, addend: 0x0, symName: __ZNSt3__16__treeINS_12__value_typeIiiEENS_19__map_value_compareIiS2_NS_4lessIiEELb1EEENS_9allocatorIS2_EEE12__begin_nodeB8ue170006Ev, symObjAddr: 0x690, symBinAddr: 0x10000426C, symSize: 0x14 }
  - { offsetInCU: 0xB35A, offset: 0xB35A, size: 0x8, addend: 0x0, symName: __ZNSt3__115__tree_iteratorINS_12__value_typeIiiEEPNS_11__tree_nodeIS2_PvEElEC1B8ue170006EPNS_15__tree_end_nodeIPNS_16__tree_node_baseIS4_EEEE, symObjAddr: 0x6A4, symBinAddr: 0x100004280, symSize: 0x34 }
  - { offsetInCU: 0xB392, offset: 0xB392, size: 0x8, addend: 0x0, symName: __ZNSt3__115__tree_iteratorINS_12__value_typeIiiEEPNS_11__tree_nodeIS2_PvEElEC2B8ue170006EPNS_15__tree_end_nodeIPNS_16__tree_node_baseIS4_EEEE, symObjAddr: 0x6D8, symBinAddr: 0x1000042B4, symSize: 0x20 }
  - { offsetInCU: 0xB3CA, offset: 0xB3CA, size: 0x8, addend: 0x0, symName: __ZNSt3__114__map_iteratorINS_15__tree_iteratorINS_12__value_typeIiiEEPNS_11__tree_nodeIS3_PvEElEEEC2B8ue170006ES8_, symObjAddr: 0x6F8, symBinAddr: 0x1000042D4, symSize: 0x20 }
  - { offsetInCU: 0xB401, offset: 0xB401, size: 0x8, addend: 0x0, symName: __ZNSt3__16__treeINS_12__value_typeIiiEENS_19__map_value_compareIiS2_NS_4lessIiEELb1EEENS_9allocatorIS2_EEE3endB8ue170006Ev, symObjAddr: 0x718, symBinAddr: 0x1000042F4, symSize: 0x34 }
  - { offsetInCU: 0xB425, offset: 0xB425, size: 0x8, addend: 0x0, symName: __ZNSt3__16__treeINS_12__value_typeIiiEENS_19__map_value_compareIiS2_NS_4lessIiEELb1EEENS_9allocatorIS2_EEE10__end_nodeB8ue170006Ev, symObjAddr: 0x74C, symBinAddr: 0x100004328, symSize: 0x2C }
  - { offsetInCU: 0xB44A, offset: 0xB44A, size: 0x8, addend: 0x0, symName: __ZNSt3__114pointer_traitsIPNS_15__tree_end_nodeIPNS_16__tree_node_baseIPvEEEEE10pointer_toB8ue170006ERS6_, symObjAddr: 0x778, symBinAddr: 0x100004354, symSize: 0x14 }
  - { offsetInCU: 0xB46C, offset: 0xB46C, size: 0x8, addend: 0x0, symName: __ZNSt3__117__compressed_pairINS_15__tree_end_nodeIPNS_16__tree_node_baseIPvEEEENS_9allocatorINS_11__tree_nodeINS_12__value_typeIiiEES3_EEEEE5firstB8ue170006Ev, symObjAddr: 0x78C, symBinAddr: 0x100004368, symSize: 0x24 }
  - { offsetInCU: 0xB491, offset: 0xB491, size: 0x8, addend: 0x0, symName: __ZNSt3__122__compressed_pair_elemINS_15__tree_end_nodeIPNS_16__tree_node_baseIPvEEEELi0ELb0EE5__getB8ue170006Ev, symObjAddr: 0x7B0, symBinAddr: 0x10000438C, symSize: 0x14 }
  - { offsetInCU: 0xB4B5, offset: 0xB4B5, size: 0x8, addend: 0x0, symName: __ZNSt3__114__map_iteratorINS_15__tree_iteratorINS_12__value_typeIiiEEPNS_11__tree_nodeIS3_PvEElEEEppB8ue170006Ev, symObjAddr: 0x828, symBinAddr: 0x100004404, symSize: 0x2C }
  - { offsetInCU: 0xB4D9, offset: 0xB4D9, size: 0x8, addend: 0x0, symName: __ZNSt3__115__tree_iteratorINS_12__value_typeIiiEEPNS_11__tree_nodeIS2_PvEElEppB8ue170006Ev, symObjAddr: 0x854, symBinAddr: 0x100004430, symSize: 0x38 }
  - { offsetInCU: 0xB4FE, offset: 0xB4FE, size: 0x8, addend: 0x0, symName: __ZNKSt3__116__tree_node_baseIPvE15__parent_unsafeB8ue170006Ev, symObjAddr: 0x988, symBinAddr: 0x100004564, symSize: 0x18 }
  - { offsetInCU: 0xB523, offset: 0xB523, size: 0x8, addend: 0x0, symName: __ZNSt3__111char_traitsIcE6lengthB8ue170006EPKc, symObjAddr: 0xB98, symBinAddr: 0x100004774, symSize: 0x34 }
  - { offsetInCU: 0xB564, offset: 0xB564, size: 0x8, addend: 0x0, symName: __ZNKSt3__113basic_ostreamIcNS_11char_traitsIcEEE6sentrycvbB8ue170006Ev, symObjAddr: 0xBCC, symBinAddr: 0x1000047A8, symSize: 0x1C }
  - { offsetInCU: 0xB589, offset: 0xB589, size: 0x8, addend: 0x0, symName: __ZNSt3__119ostreambuf_iteratorIcNS_11char_traitsIcEEEC1B8ue170006ERNS_13basic_ostreamIcS2_EE, symObjAddr: 0xE28, symBinAddr: 0x100004A04, symSize: 0x34 }
  - { offsetInCU: 0xB5C0, offset: 0xB5C0, size: 0x8, addend: 0x0, symName: __ZNKSt3__18ios_base5flagsB8ue170006Ev, symObjAddr: 0xE5C, symBinAddr: 0x100004A38, symSize: 0x18 }
  - { offsetInCU: 0xB5E7, offset: 0xB5E7, size: 0x8, addend: 0x0, symName: __ZNKSt3__19basic_iosIcNS_11char_traitsIcEEE4fillB8ue170006Ev, symObjAddr: 0xE74, symBinAddr: 0x100004A50, symSize: 0x64 }
  - { offsetInCU: 0xB60E, offset: 0xB60E, size: 0x8, addend: 0x0, symName: __ZNKSt3__119ostreambuf_iteratorIcNS_11char_traitsIcEEE6failedB8ue170006Ev, symObjAddr: 0xED8, symBinAddr: 0x100004AB4, symSize: 0x24 }
  - { offsetInCU: 0xB632, offset: 0xB632, size: 0x8, addend: 0x0, symName: __ZNSt3__19basic_iosIcNS_11char_traitsIcEEE8setstateB8ue170006Ej, symObjAddr: 0xEFC, symBinAddr: 0x100004AD8, symSize: 0x2C }
  - { offsetInCU: 0xB666, offset: 0xB666, size: 0x8, addend: 0x0, symName: __ZNKSt3__18ios_base5widthB8ue170006Ev, symObjAddr: 0xF28, symBinAddr: 0x100004B04, symSize: 0x18 }
  - { offsetInCU: 0xB68C, offset: 0xB68C, size: 0x8, addend: 0x0, symName: __ZNSt3__115basic_streambufIcNS_11char_traitsIcEEE5sputnB8ue170006EPKcl, symObjAddr: 0xF40, symBinAddr: 0x100004B1C, symSize: 0x3C }
  - { offsetInCU: 0xB6CD, offset: 0xB6CD, size: 0x8, addend: 0x0, symName: __ZNSt3__112basic_stringIcNS_11char_traitsIcEENS_9allocatorIcEEEC1B8ue170006Emc, symObjAddr: 0xF7C, symBinAddr: 0x100004B58, symSize: 0x3C }
  - { offsetInCU: 0xB713, offset: 0xB713, size: 0x8, addend: 0x0, symName: __ZNKSt3__112basic_stringIcNS_11char_traitsIcEENS_9allocatorIcEEE4dataB8ue170006Ev, symObjAddr: 0xFB8, symBinAddr: 0x100004B94, symSize: 0x28 }
  - { offsetInCU: 0xB738, offset: 0xB738, size: 0x8, addend: 0x0, symName: __ZNSt3__18ios_base5widthB8ue170006El, symObjAddr: 0xFE0, symBinAddr: 0x100004BBC, symSize: 0x2C }
  - { offsetInCU: 0xB77D, offset: 0xB77D, size: 0x8, addend: 0x0, symName: __ZNSt3__112basic_stringIcNS_11char_traitsIcEENS_9allocatorIcEEEC2B8ue170006Emc, symObjAddr: 0x100C, symBinAddr: 0x100004BE8, symSize: 0x4C }
  - { offsetInCU: 0xB7C9, offset: 0xB7C9, size: 0x8, addend: 0x0, symName: __ZNSt3__117__compressed_pairINS_12basic_stringIcNS_11char_traitsIcEENS_9allocatorIcEEE5__repES5_EC1B8ue170006INS_18__default_init_tagESA_EEOT_OT0_, symObjAddr: 0x1058, symBinAddr: 0x100004C34, symSize: 0x3C }
  - { offsetInCU: 0xB820, offset: 0xB820, size: 0x8, addend: 0x0, symName: __ZNSt3__117__compressed_pairINS_12basic_stringIcNS_11char_traitsIcEENS_9allocatorIcEEE5__repES5_EC2B8ue170006INS_18__default_init_tagESA_EEOT_OT0_, symObjAddr: 0x1094, symBinAddr: 0x100004C70, symSize: 0x3C }
  - { offsetInCU: 0xB877, offset: 0xB877, size: 0x8, addend: 0x0, symName: __ZNSt3__122__compressed_pair_elemINS_12basic_stringIcNS_11char_traitsIcEENS_9allocatorIcEEE5__repELi0ELb0EEC2B8ue170006ENS_18__default_init_tagE, symObjAddr: 0x10D0, symBinAddr: 0x100004CAC, symSize: 0x14 }
  - { offsetInCU: 0xB8AA, offset: 0xB8AA, size: 0x8, addend: 0x0, symName: __ZNSt3__122__compressed_pair_elemINS_9allocatorIcEELi1ELb1EEC2B8ue170006ENS_18__default_init_tagE, symObjAddr: 0x10E4, symBinAddr: 0x100004CC0, symSize: 0x2C }
  - { offsetInCU: 0xB8DD, offset: 0xB8DD, size: 0x8, addend: 0x0, symName: __ZNSt3__19allocatorIcEC2B8ue170006Ev, symObjAddr: 0x1110, symBinAddr: 0x100004CEC, symSize: 0x2C }
  - { offsetInCU: 0xB906, offset: 0xB906, size: 0x8, addend: 0x0, symName: __ZNSt3__116__non_trivial_ifILb1ENS_9allocatorIcEEEC2B8ue170006Ev, symObjAddr: 0x113C, symBinAddr: 0x100004D18, symSize: 0x14 }
  - { offsetInCU: 0xB92E, offset: 0xB92E, size: 0x8, addend: 0x0, symName: __ZNKSt3__112basic_stringIcNS_11char_traitsIcEENS_9allocatorIcEEE13__get_pointerB8ue170006Ev, symObjAddr: 0x1164, symBinAddr: 0x100004D40, symSize: 0x54 }
  - { offsetInCU: 0xB952, offset: 0xB952, size: 0x8, addend: 0x0, symName: __ZNKSt3__112basic_stringIcNS_11char_traitsIcEENS_9allocatorIcEEE9__is_longB8ue170006Ev, symObjAddr: 0x11B8, symBinAddr: 0x100004D94, symSize: 0x38 }
  - { offsetInCU: 0xB976, offset: 0xB976, size: 0x8, addend: 0x0, symName: __ZNKSt3__112basic_stringIcNS_11char_traitsIcEENS_9allocatorIcEEE18__get_long_pointerB8ue170006Ev, symObjAddr: 0x11F0, symBinAddr: 0x100004DCC, symSize: 0x28 }
  - { offsetInCU: 0xB99A, offset: 0xB99A, size: 0x8, addend: 0x0, symName: __ZNKSt3__112basic_stringIcNS_11char_traitsIcEENS_9allocatorIcEEE19__get_short_pointerB8ue170006Ev, symObjAddr: 0x1218, symBinAddr: 0x100004DF4, symSize: 0x28 }
  - { offsetInCU: 0xB9BE, offset: 0xB9BE, size: 0x8, addend: 0x0, symName: __ZNKSt3__117__compressed_pairINS_12basic_stringIcNS_11char_traitsIcEENS_9allocatorIcEEE5__repES5_E5firstB8ue170006Ev, symObjAddr: 0x1240, symBinAddr: 0x100004E1C, symSize: 0x24 }
  - { offsetInCU: 0xB9E3, offset: 0xB9E3, size: 0x8, addend: 0x0, symName: __ZNKSt3__122__compressed_pair_elemINS_12basic_stringIcNS_11char_traitsIcEENS_9allocatorIcEEE5__repELi0ELb0EE5__getB8ue170006Ev, symObjAddr: 0x1264, symBinAddr: 0x100004E40, symSize: 0x14 }
  - { offsetInCU: 0xBA08, offset: 0xBA08, size: 0x8, addend: 0x0, symName: __ZNSt3__114pointer_traitsIPKcE10pointer_toB8ue170006ERS1_, symObjAddr: 0x1278, symBinAddr: 0x100004E54, symSize: 0x14 }
  - { offsetInCU: 0xBA2B, offset: 0xBA2B, size: 0x8, addend: 0x0, symName: __ZNSt3__119ostreambuf_iteratorIcNS_11char_traitsIcEEEC2B8ue170006ERNS_13basic_ostreamIcS2_EE, symObjAddr: 0x128C, symBinAddr: 0x100004E68, symSize: 0x54 }
  - { offsetInCU: 0xBA62, offset: 0xBA62, size: 0x8, addend: 0x0, symName: __ZNKSt3__19basic_iosIcNS_11char_traitsIcEEE5rdbufB8ue170006Ev, symObjAddr: 0x12E0, symBinAddr: 0x100004EBC, symSize: 0x24 }
  - { offsetInCU: 0xBA89, offset: 0xBA89, size: 0x8, addend: 0x0, symName: __ZNKSt3__18ios_base5rdbufB8ue170006Ev, symObjAddr: 0x1304, symBinAddr: 0x100004EE0, symSize: 0x18 }
  - { offsetInCU: 0xBAAE, offset: 0xBAAE, size: 0x8, addend: 0x0, symName: __ZNSt3__111char_traitsIcE11eq_int_typeB8ue170006Eii, symObjAddr: 0x131C, symBinAddr: 0x100004EF8, symSize: 0x28 }
  - { offsetInCU: 0xBAE1, offset: 0xBAE1, size: 0x8, addend: 0x0, symName: __ZNSt3__111char_traitsIcE3eofB8ue170006Ev, symObjAddr: 0x1344, symBinAddr: 0x100004F20, symSize: 0x8 }
  - { offsetInCU: 0xBAF5, offset: 0xBAF5, size: 0x8, addend: 0x0, symName: __ZNKSt3__19basic_iosIcNS_11char_traitsIcEEE5widenB8ue170006Ec, symObjAddr: 0x134C, symBinAddr: 0x100004F28, symSize: 0x84 }
  - { offsetInCU: 0xBB61, offset: 0xBB61, size: 0x8, addend: 0x0, symName: __ZNKSt3__15ctypeIcE5widenB8ue170006Ec, symObjAddr: 0x13FC, symBinAddr: 0x100004FD8, symSize: 0x38 }
  - { offsetInCU: 0xBB95, offset: 0xBB95, size: 0x8, addend: 0x0, symName: __ZNSt3__18ios_base8setstateB8ue170006Ej, symObjAddr: 0x1434, symBinAddr: 0x100005010, symSize: 0x34 }
  - { offsetInCU: 0xBBCA, offset: 0xBBCA, size: 0x8, addend: 0x0, symName: __ZNKSt3__115__tree_iteratorINS_12__value_typeIiiEEPNS_11__tree_nodeIS2_PvEElEptB8ue170006Ev, symObjAddr: 0x148C, symBinAddr: 0x100005068, symSize: 0x2C }
  - { offsetInCU: 0xBBEF, offset: 0xBBEF, size: 0x8, addend: 0x0, symName: __ZNSt3__112__value_typeIiiE11__get_valueB8ue170006Ev, symObjAddr: 0x14B8, symBinAddr: 0x100005094, symSize: 0x14 }
  - { offsetInCU: 0xBC14, offset: 0xBC14, size: 0x8, addend: 0x0, symName: __ZNSt3__114pointer_traitsIPNS_12__value_typeIiiEEE10pointer_toB8ue170006ERS2_, symObjAddr: 0x14CC, symBinAddr: 0x1000050A8, symSize: 0x14 }
  - { offsetInCU: 0xBC37, offset: 0xBC37, size: 0x8, addend: 0x0, symName: __ZNKSt3__115__tree_iteratorINS_12__value_typeIiiEEPNS_11__tree_nodeIS2_PvEElE8__get_npB8ue170006Ev, symObjAddr: 0x14E0, symBinAddr: 0x1000050BC, symSize: 0x18 }
  - { offsetInCU: 0xBC5C, offset: 0xBC5C, size: 0x8, addend: 0x0, symName: __ZNSt3__13mapIiiNS_4lessIiEENS_9allocatorINS_4pairIKiiEEEEEC2B8ue170006Ev, symObjAddr: 0x14F8, symBinAddr: 0x1000050D4, symSize: 0x40 }
  - { offsetInCU: 0xBC85, offset: 0xBC85, size: 0x8, addend: 0x0, symName: __ZNSt3__119__map_value_compareIiNS_12__value_typeIiiEENS_4lessIiEELb1EEC1B8ue170006ES4_, symObjAddr: 0x1538, symBinAddr: 0x100005114, symSize: 0x2C }
  - { offsetInCU: 0xBCBD, offset: 0xBCBD, size: 0x8, addend: 0x0, symName: __ZNSt3__16__treeINS_12__value_typeIiiEENS_19__map_value_compareIiS2_NS_4lessIiEELb1EEENS_9allocatorIS2_EEEC1ERKS6_, symObjAddr: 0x1564, symBinAddr: 0x100005140, symSize: 0x34 }
  - { offsetInCU: 0xBCF7, offset: 0xBCF7, size: 0x8, addend: 0x0, symName: __ZNSt3__119__map_value_compareIiNS_12__value_typeIiiEENS_4lessIiEELb1EEC2B8ue170006ES4_, symObjAddr: 0x1598, symBinAddr: 0x100005174, symSize: 0x14 }
  - { offsetInCU: 0xBD2F, offset: 0xBD2F, size: 0x8, addend: 0x0, symName: __ZNSt3__16__treeINS_12__value_typeIiiEENS_19__map_value_compareIiS2_NS_4lessIiEELb1EEENS_9allocatorIS2_EEEC2ERKS6_, symObjAddr: 0x15AC, symBinAddr: 0x100005188, symSize: 0x7C }
  - { offsetInCU: 0xBD69, offset: 0xBD69, size: 0x8, addend: 0x0, symName: __ZNSt3__117__compressed_pairINS_15__tree_end_nodeIPNS_16__tree_node_baseIPvEEEENS_9allocatorINS_11__tree_nodeINS_12__value_typeIiiEES3_EEEEEC1B8ue170006ILb1EvEEv, symObjAddr: 0x1628, symBinAddr: 0x100005204, symSize: 0x2C }
  - { offsetInCU: 0xBD9D, offset: 0xBD9D, size: 0x8, addend: 0x0, symName: __ZNSt3__117__compressed_pairImNS_19__map_value_compareIiNS_12__value_typeIiiEENS_4lessIiEELb1EEEEC1B8ue170006IiRKS6_EEOT_OT0_, symObjAddr: 0x1654, symBinAddr: 0x100005230, symSize: 0x3C }
  - { offsetInCU: 0xBDF4, offset: 0xBDF4, size: 0x8, addend: 0x0, symName: __ZNSt3__117__compressed_pairINS_15__tree_end_nodeIPNS_16__tree_node_baseIPvEEEENS_9allocatorINS_11__tree_nodeINS_12__value_typeIiiEES3_EEEEEC2B8ue170006ILb1EvEEv, symObjAddr: 0x1690, symBinAddr: 0x10000526C, symSize: 0x34 }
  - { offsetInCU: 0xBE28, offset: 0xBE28, size: 0x8, addend: 0x0, symName: __ZNSt3__122__compressed_pair_elemINS_15__tree_end_nodeIPNS_16__tree_node_baseIPvEEEELi0ELb0EEC2B8ue170006ENS_16__value_init_tagE, symObjAddr: 0x16C4, symBinAddr: 0x1000052A0, symSize: 0x2C }
  - { offsetInCU: 0xBE5B, offset: 0xBE5B, size: 0x8, addend: 0x0, symName: __ZNSt3__122__compressed_pair_elemINS_9allocatorINS_11__tree_nodeINS_12__value_typeIiiEEPvEEEELi1ELb1EEC2B8ue170006ENS_16__value_init_tagE, symObjAddr: 0x16F0, symBinAddr: 0x1000052CC, symSize: 0x2C }
  - { offsetInCU: 0xBE8E, offset: 0xBE8E, size: 0x8, addend: 0x0, symName: __ZNSt3__115__tree_end_nodeIPNS_16__tree_node_baseIPvEEEC1B8ue170006Ev, symObjAddr: 0x171C, symBinAddr: 0x1000052F8, symSize: 0x2C }
  - { offsetInCU: 0xBEB7, offset: 0xBEB7, size: 0x8, addend: 0x0, symName: __ZNSt3__115__tree_end_nodeIPNS_16__tree_node_baseIPvEEEC2B8ue170006Ev, symObjAddr: 0x1748, symBinAddr: 0x100005324, symSize: 0x18 }
  - { offsetInCU: 0xBEE0, offset: 0xBEE0, size: 0x8, addend: 0x0, symName: __ZNSt3__19allocatorINS_11__tree_nodeINS_12__value_typeIiiEEPvEEEC2B8ue170006Ev, symObjAddr: 0x1760, symBinAddr: 0x10000533C, symSize: 0x2C }
  - { offsetInCU: 0xBF09, offset: 0xBF09, size: 0x8, addend: 0x0, symName: __ZNSt3__116__non_trivial_ifILb1ENS_9allocatorINS_11__tree_nodeINS_12__value_typeIiiEEPvEEEEEC2B8ue170006Ev, symObjAddr: 0x178C, symBinAddr: 0x100005368, symSize: 0x14 }
  - { offsetInCU: 0xBF32, offset: 0xBF32, size: 0x8, addend: 0x0, symName: __ZNSt3__117__compressed_pairImNS_19__map_value_compareIiNS_12__value_typeIiiEENS_4lessIiEELb1EEEEC2B8ue170006IiRKS6_EEOT_OT0_, symObjAddr: 0x17A0, symBinAddr: 0x10000537C, symSize: 0x44 }
  - { offsetInCU: 0xBF89, offset: 0xBF89, size: 0x8, addend: 0x0, symName: __ZNSt3__122__compressed_pair_elemImLi0ELb0EEC2B8ue170006IivEEOT_, symObjAddr: 0x17E4, symBinAddr: 0x1000053C0, symSize: 0x24 }
  - { offsetInCU: 0xBFCA, offset: 0xBFCA, size: 0x8, addend: 0x0, symName: __ZNSt3__122__compressed_pair_elemINS_19__map_value_compareIiNS_12__value_typeIiiEENS_4lessIiEELb1EEELi1ELb1EEC2B8ue170006IRKS6_vEEOT_, symObjAddr: 0x1808, symBinAddr: 0x1000053E4, symSize: 0x18 }
  - { offsetInCU: 0xC00B, offset: 0xC00B, size: 0x8, addend: 0x0, symName: __ZNSt3__13mapIiiNS_4lessIiEENS_9allocatorINS_4pairIKiiEEEEED2B8ue170006Ev, symObjAddr: 0x1820, symBinAddr: 0x1000053FC, symSize: 0x2C }
  - { offsetInCU: 0xC034, offset: 0xC034, size: 0x8, addend: 0x0, symName: __ZNSt3__16__treeINS_12__value_typeIiiEENS_19__map_value_compareIiS2_NS_4lessIiEELb1EEENS_9allocatorIS2_EEED1Ev, symObjAddr: 0x184C, symBinAddr: 0x100005428, symSize: 0x2C }
  - { offsetInCU: 0xC05F, offset: 0xC05F, size: 0x8, addend: 0x0, symName: __ZNSt3__16__treeINS_12__value_typeIiiEENS_19__map_value_compareIiS2_NS_4lessIiEELb1EEENS_9allocatorIS2_EEED2Ev, symObjAddr: 0x1878, symBinAddr: 0x100005454, symSize: 0x38 }
  - { offsetInCU: 0xC08A, offset: 0xC08A, size: 0x8, addend: 0x0, symName: __ZNSt3__16__treeINS_12__value_typeIiiEENS_19__map_value_compareIiS2_NS_4lessIiEELb1EEENS_9allocatorIS2_EEE7destroyEPNS_11__tree_nodeIS2_PvEE, symObjAddr: 0x18B0, symBinAddr: 0x10000548C, symSize: 0xAC }
  - { offsetInCU: 0xC0D4, offset: 0xC0D4, size: 0x8, addend: 0x0, symName: __ZNKSt3__16__treeINS_12__value_typeIiiEENS_19__map_value_compareIiS2_NS_4lessIiEELb1EEENS_9allocatorIS2_EEE6__rootB8ue170006Ev, symObjAddr: 0x195C, symBinAddr: 0x100005538, symSize: 0x28 }
  - { offsetInCU: 0xC0F8, offset: 0xC0F8, size: 0x8, addend: 0x0, symName: __ZNSt3__16__treeINS_12__value_typeIiiEENS_19__map_value_compareIiS2_NS_4lessIiEELb1EEENS_9allocatorIS2_EEE12__node_allocB8ue170006Ev, symObjAddr: 0x1984, symBinAddr: 0x100005560, symSize: 0x28 }
  - { offsetInCU: 0xC11D, offset: 0xC11D, size: 0x8, addend: 0x0, symName: __ZNSt3__116allocator_traitsINS_9allocatorINS_11__tree_nodeINS_12__value_typeIiiEEPvEEEEE7destroyB8ue170006INS_4pairIKiiEEvvEEvRS7_PT_, symObjAddr: 0x19AC, symBinAddr: 0x100005588, symSize: 0x14 }
  - { offsetInCU: 0xC158, offset: 0xC158, size: 0x8, addend: 0x0, symName: __ZNSt3__122__tree_key_value_typesINS_12__value_typeIiiEEE9__get_ptrB8ue170006ERS2_, symObjAddr: 0x19C0, symBinAddr: 0x10000559C, symSize: 0x24 }
  - { offsetInCU: 0xC17C, offset: 0xC17C, size: 0x8, addend: 0x0, symName: __ZNSt3__116allocator_traitsINS_9allocatorINS_11__tree_nodeINS_12__value_typeIiiEEPvEEEEE10deallocateB8ue170006ERS7_PS6_m, symObjAddr: 0x19E4, symBinAddr: 0x1000055C0, symSize: 0x34 }
  - { offsetInCU: 0xC1BD, offset: 0xC1BD, size: 0x8, addend: 0x0, symName: __ZNSt3__117__compressed_pairINS_15__tree_end_nodeIPNS_16__tree_node_baseIPvEEEENS_9allocatorINS_11__tree_nodeINS_12__value_typeIiiEES3_EEEEE6secondB8ue170006Ev, symObjAddr: 0x1A18, symBinAddr: 0x1000055F4, symSize: 0x24 }
  - { offsetInCU: 0xC1E2, offset: 0xC1E2, size: 0x8, addend: 0x0, symName: __ZNSt3__122__compressed_pair_elemINS_9allocatorINS_11__tree_nodeINS_12__value_typeIiiEEPvEEEELi1ELb1EE5__getB8ue170006Ev, symObjAddr: 0x1A3C, symBinAddr: 0x100005618, symSize: 0x14 }
  - { offsetInCU: 0xC206, offset: 0xC206, size: 0x8, addend: 0x0, symName: __ZNSt3__19allocatorINS_11__tree_nodeINS_12__value_typeIiiEEPvEEE10deallocateB8ue170006EPS5_m, symObjAddr: 0x1A50, symBinAddr: 0x10000562C, symSize: 0x44 }
  - { offsetInCU: 0xC246, offset: 0xC246, size: 0x8, addend: 0x0, symName: __ZNKSt3__16__treeINS_12__value_typeIiiEENS_19__map_value_compareIiS2_NS_4lessIiEELb1EEENS_9allocatorIS2_EEE10__end_nodeB8ue170006Ev, symObjAddr: 0x1B10, symBinAddr: 0x1000056EC, symSize: 0x2C }
  - { offsetInCU: 0xC26A, offset: 0xC26A, size: 0x8, addend: 0x0, symName: __ZNKSt3__117__compressed_pairINS_15__tree_end_nodeIPNS_16__tree_node_baseIPvEEEENS_9allocatorINS_11__tree_nodeINS_12__value_typeIiiEES3_EEEEE5firstB8ue170006Ev, symObjAddr: 0x1B3C, symBinAddr: 0x100005718, symSize: 0x24 }
  - { offsetInCU: 0xC28F, offset: 0xC28F, size: 0x8, addend: 0x0, symName: __ZNKSt3__122__compressed_pair_elemINS_15__tree_end_nodeIPNS_16__tree_node_baseIPvEEEELi0ELb0EE5__getB8ue170006Ev, symObjAddr: 0x1B60, symBinAddr: 0x10000573C, symSize: 0x14 }
  - { offsetInCU: 0xC2B3, offset: 0xC2B3, size: 0x8, addend: 0x0, symName: __ZNSt3__16__treeINS_12__value_typeIiiEENS_19__map_value_compareIiS2_NS_4lessIiEELb1EEENS_9allocatorIS2_EEE15__insert_uniqueB8ue170006INS_4pairIiiEEvEENSB_INS_15__tree_iteratorIS2_PNS_11__tree_nodeIS2_PvEElEEbEEOT_, symObjAddr: 0x1B74, symBinAddr: 0x100005750, symSize: 0x3C }
  - { offsetInCU: 0xC2F1, offset: 0xC2F1, size: 0x8, addend: 0x0, symName: __ZNSt3__14pairINS_14__map_iteratorINS_15__tree_iteratorINS_12__value_typeIiiEEPNS_11__tree_nodeIS4_PvEElEEEEbEC1B8ue170006IS9_bLS6_0EEEONS0_IT_T0_EE, symObjAddr: 0x1BB0, symBinAddr: 0x10000578C, symSize: 0x34 }
  - { offsetInCU: 0xC340, offset: 0xC340, size: 0x8, addend: 0x0, symName: __ZNSt3__16__treeINS_12__value_typeIiiEENS_19__map_value_compareIiS2_NS_4lessIiEELb1EEENS_9allocatorIS2_EEE16__emplace_uniqueB8ue170006INS_4pairIiiEEEENSB_INS_15__tree_iteratorIS2_PNS_11__tree_nodeIS2_PvEElEEbEEOT_, symObjAddr: 0x1BE4, symBinAddr: 0x1000057C0, symSize: 0x3C }
  - { offsetInCU: 0xC37C, offset: 0xC37C, size: 0x8, addend: 0x0, symName: __ZNSt3__16__treeINS_12__value_typeIiiEENS_19__map_value_compareIiS2_NS_4lessIiEELb1EEENS_9allocatorIS2_EEE28__emplace_unique_extract_keyB8ue170006INS_4pairIiiEEEENSB_INS_15__tree_iteratorIS2_PNS_11__tree_nodeIS2_PvEElEEbEEOT_NS_23__extract_key_first_tagE, symObjAddr: 0x1C20, symBinAddr: 0x1000057FC, symSize: 0x40 }
  - { offsetInCU: 0xC3C5, offset: 0xC3C5, size: 0x8, addend: 0x0, symName: __ZNSt3__16__treeINS_12__value_typeIiiEENS_19__map_value_compareIiS2_NS_4lessIiEELb1EEENS_9allocatorIS2_EEE25__emplace_unique_key_argsIiJNS_4pairIiiEEEEENSB_INS_15__tree_iteratorIS2_PNS_11__tree_nodeIS2_PvEElEEbEERKT_DpOT0_, symObjAddr: 0x1C60, symBinAddr: 0x10000583C, symSize: 0xF0 }
  - { offsetInCU: 0xC470, offset: 0xC470, size: 0x8, addend: 0x0, symName: __ZNSt3__16__treeINS_12__value_typeIiiEENS_19__map_value_compareIiS2_NS_4lessIiEELb1EEENS_9allocatorIS2_EEE12__find_equalIiEERPNS_16__tree_node_baseIPvEERPNS_15__tree_end_nodeISE_EERKT_, symObjAddr: 0x1D50, symBinAddr: 0x10000592C, symSize: 0x184 }
  - { offsetInCU: 0xC4DC, offset: 0xC4DC, size: 0x8, addend: 0x0, symName: __ZNSt3__16__treeINS_12__value_typeIiiEENS_19__map_value_compareIiS2_NS_4lessIiEELb1EEENS_9allocatorIS2_EEE16__construct_nodeIJNS_4pairIiiEEEEENS_10unique_ptrINS_11__tree_nodeIS2_PvEENS_22__tree_node_destructorINS7_ISG_EEEEEEDpOT_, symObjAddr: 0x1ED4, symBinAddr: 0x100005AB0, symSize: 0x108 }
  - { offsetInCU: 0xC53C, offset: 0xC53C, size: 0x8, addend: 0x0, symName: __ZNSt3__16__treeINS_12__value_typeIiiEENS_19__map_value_compareIiS2_NS_4lessIiEELb1EEENS_9allocatorIS2_EEE16__insert_node_atEPNS_15__tree_end_nodeIPNS_16__tree_node_baseIPvEEEERSE_SE_, symObjAddr: 0x1FDC, symBinAddr: 0x100005BB8, symSize: 0xCC }
  - { offsetInCU: 0xC58F, offset: 0xC58F, size: 0x8, addend: 0x0, symName: __ZNKSt3__110unique_ptrINS_11__tree_nodeINS_12__value_typeIiiEEPvEENS_22__tree_node_destructorINS_9allocatorIS5_EEEEE3getB8ue170006Ev, symObjAddr: 0x20A8, symBinAddr: 0x100005C84, symSize: 0x28 }
  - { offsetInCU: 0xC5B3, offset: 0xC5B3, size: 0x8, addend: 0x0, symName: __ZNSt3__110unique_ptrINS_11__tree_nodeINS_12__value_typeIiiEEPvEENS_22__tree_node_destructorINS_9allocatorIS5_EEEEE7releaseB8ue170006Ev, symObjAddr: 0x20D0, symBinAddr: 0x100005CAC, symSize: 0x44 }
  - { offsetInCU: 0xC5E7, offset: 0xC5E7, size: 0x8, addend: 0x0, symName: __ZNSt3__110unique_ptrINS_11__tree_nodeINS_12__value_typeIiiEEPvEENS_22__tree_node_destructorINS_9allocatorIS5_EEEEED1B8ue170006Ev, symObjAddr: 0x2114, symBinAddr: 0x100005CF0, symSize: 0x2C }
  - { offsetInCU: 0xC610, offset: 0xC610, size: 0x8, addend: 0x0, symName: __ZNSt3__115__tree_iteratorINS_12__value_typeIiiEEPNS_11__tree_nodeIS2_PvEElEC1B8ue170006ES6_, symObjAddr: 0x2140, symBinAddr: 0x100005D1C, symSize: 0x34 }
  - { offsetInCU: 0xC652, offset: 0xC652, size: 0x8, addend: 0x0, symName: __ZNSt3__14pairINS_15__tree_iteratorINS_12__value_typeIiiEEPNS_11__tree_nodeIS3_PvEElEEbEC1B8ue170006IS8_RbLS5_0EEEOT_OT0_, symObjAddr: 0x2174, symBinAddr: 0x100005D50, symSize: 0x3C }
  - { offsetInCU: 0xC6AE, offset: 0xC6AE, size: 0x8, addend: 0x0, symName: __ZNKSt3__16__treeINS_12__value_typeIiiEENS_19__map_value_compareIiS2_NS_4lessIiEELb1EEENS_9allocatorIS2_EEE10__root_ptrB8ue170006Ev, symObjAddr: 0x21B0, symBinAddr: 0x100005D8C, symSize: 0x24 }
  - { offsetInCU: 0xC6D2, offset: 0xC6D2, size: 0x8, addend: 0x0, symName: __ZNSt3__16__treeINS_12__value_typeIiiEENS_19__map_value_compareIiS2_NS_4lessIiEELb1EEENS_9allocatorIS2_EEE10value_compB8ue170006Ev, symObjAddr: 0x21D4, symBinAddr: 0x100005DB0, symSize: 0x28 }
  - { offsetInCU: 0xC6F6, offset: 0xC6F6, size: 0x8, addend: 0x0, symName: __ZNKSt3__119__map_value_compareIiNS_12__value_typeIiiEENS_4lessIiEELb1EEclB8ue170006ERKiRKS2_, symObjAddr: 0x21FC, symBinAddr: 0x100005DD8, symSize: 0x50 }
  - { offsetInCU: 0xC738, offset: 0xC738, size: 0x8, addend: 0x0, symName: __ZNKSt3__119__map_value_compareIiNS_12__value_typeIiiEENS_4lessIiEELb1EEclB8ue170006ERKS2_RKi, symObjAddr: 0x224C, symBinAddr: 0x100005E28, symSize: 0x48 }
  - { offsetInCU: 0xC77A, offset: 0xC77A, size: 0x8, addend: 0x0, symName: __ZNSt3__117__compressed_pairImNS_19__map_value_compareIiNS_12__value_typeIiiEENS_4lessIiEELb1EEEE6secondB8ue170006Ev, symObjAddr: 0x2294, symBinAddr: 0x100005E70, symSize: 0x24 }
  - { offsetInCU: 0xC79F, offset: 0xC79F, size: 0x8, addend: 0x0, symName: __ZNSt3__122__compressed_pair_elemINS_19__map_value_compareIiNS_12__value_typeIiiEENS_4lessIiEELb1EEELi1ELb1EE5__getB8ue170006Ev, symObjAddr: 0x22B8, symBinAddr: 0x100005E94, symSize: 0x14 }
  - { offsetInCU: 0xC7C4, offset: 0xC7C4, size: 0x8, addend: 0x0, symName: __ZNKSt3__14lessIiEclB8ue170006ERKiS3_, symObjAddr: 0x22CC, symBinAddr: 0x100005EA8, symSize: 0x34 }
  - { offsetInCU: 0xC807, offset: 0xC807, size: 0x8, addend: 0x0, symName: __ZNKSt3__112__value_typeIiiE11__get_valueB8ue170006Ev, symObjAddr: 0x2300, symBinAddr: 0x100005EDC, symSize: 0x14 }
  - { offsetInCU: 0xC82C, offset: 0xC82C, size: 0x8, addend: 0x0, symName: __ZNSt3__116allocator_traitsINS_9allocatorINS_11__tree_nodeINS_12__value_typeIiiEEPvEEEEE8allocateB8ue170006ERS7_m, symObjAddr: 0x2314, symBinAddr: 0x100005EF0, symSize: 0x2C }
  - { offsetInCU: 0xC85F, offset: 0xC85F, size: 0x8, addend: 0x0, symName: __ZNSt3__122__tree_node_destructorINS_9allocatorINS_11__tree_nodeINS_12__value_typeIiiEEPvEEEEEC1B8ue170006ERS7_b, symObjAddr: 0x2340, symBinAddr: 0x100005F1C, symSize: 0x48 }
  - { offsetInCU: 0xC8AB, offset: 0xC8AB, size: 0x8, addend: 0x0, symName: __ZNSt3__110unique_ptrINS_11__tree_nodeINS_12__value_typeIiiEEPvEENS_22__tree_node_destructorINS_9allocatorIS5_EEEEEC1B8ue170006ILb1EvEEPS5_NS_16__dependent_typeINS_27__unique_ptr_deleter_sfinaeIS9_EEXT_EE20__good_rval_ref_typeE, symObjAddr: 0x2388, symBinAddr: 0x100005F64, symSize: 0x3C }
  - { offsetInCU: 0xC8FB, offset: 0xC8FB, size: 0x8, addend: 0x0, symName: __ZNSt3__116allocator_traitsINS_9allocatorINS_11__tree_nodeINS_12__value_typeIiiEEPvEEEEE9constructB8ue170006INS_4pairIKiiEEJNSA_IiiEEEvEEvRS7_PT_DpOT0_, symObjAddr: 0x23C4, symBinAddr: 0x100005FA0, symSize: 0x34 }
  - { offsetInCU: 0xC951, offset: 0xC951, size: 0x8, addend: 0x0, symName: __ZNKSt3__110unique_ptrINS_11__tree_nodeINS_12__value_typeIiiEEPvEENS_22__tree_node_destructorINS_9allocatorIS5_EEEEEptB8ue170006Ev, symObjAddr: 0x23F8, symBinAddr: 0x100005FD4, symSize: 0x28 }
  - { offsetInCU: 0xC975, offset: 0xC975, size: 0x8, addend: 0x0, symName: __ZNSt3__110unique_ptrINS_11__tree_nodeINS_12__value_typeIiiEEPvEENS_22__tree_node_destructorINS_9allocatorIS5_EEEEE11get_deleterB8ue170006Ev, symObjAddr: 0x2420, symBinAddr: 0x100005FFC, symSize: 0x24 }
  - { offsetInCU: 0xC999, offset: 0xC999, size: 0x8, addend: 0x0, symName: __ZNSt3__19allocatorINS_11__tree_nodeINS_12__value_typeIiiEEPvEEE8allocateB8ue170006Em, symObjAddr: 0x2444, symBinAddr: 0x100006020, symSize: 0x5C }
  - { offsetInCU: 0xC9D6, offset: 0xC9D6, size: 0x8, addend: 0x0, symName: __ZNSt3__116allocator_traitsINS_9allocatorINS_11__tree_nodeINS_12__value_typeIiiEEPvEEEEE8max_sizeB8ue170006IS7_vEEmRKS7_, symObjAddr: 0x24A0, symBinAddr: 0x10000607C, symSize: 0x24 }
  - { offsetInCU: 0xCA04, offset: 0xCA04, size: 0x8, addend: 0x0, symName: __ZNKSt3__19allocatorINS_11__tree_nodeINS_12__value_typeIiiEEPvEEE8max_sizeB8ue170006Ev, symObjAddr: 0x2520, symBinAddr: 0x1000060FC, symSize: 0x18 }
  - { offsetInCU: 0xCA29, offset: 0xCA29, size: 0x8, addend: 0x0, symName: __ZNSt3__122__tree_node_destructorINS_9allocatorINS_11__tree_nodeINS_12__value_typeIiiEEPvEEEEEC2B8ue170006ERS7_b, symObjAddr: 0x255C, symBinAddr: 0x100006138, symSize: 0x38 }
  - { offsetInCU: 0xCA70, offset: 0xCA70, size: 0x8, addend: 0x0, symName: __ZNSt3__110unique_ptrINS_11__tree_nodeINS_12__value_typeIiiEEPvEENS_22__tree_node_destructorINS_9allocatorIS5_EEEEEC2B8ue170006ILb1EvEEPS5_NS_16__dependent_typeINS_27__unique_ptr_deleter_sfinaeIS9_EEXT_EE20__good_rval_ref_typeE, symObjAddr: 0x2594, symBinAddr: 0x100006170, symSize: 0x48 }
  - { offsetInCU: 0xCAC0, offset: 0xCAC0, size: 0x8, addend: 0x0, symName: __ZNSt3__117__compressed_pairIPNS_11__tree_nodeINS_12__value_typeIiiEEPvEENS_22__tree_node_destructorINS_9allocatorIS5_EEEEEC1B8ue170006IRS6_SA_EEOT_OT0_, symObjAddr: 0x25DC, symBinAddr: 0x1000061B8, symSize: 0x3C }
  - { offsetInCU: 0xCB17, offset: 0xCB17, size: 0x8, addend: 0x0, symName: __ZNSt3__117__compressed_pairIPNS_11__tree_nodeINS_12__value_typeIiiEEPvEENS_22__tree_node_destructorINS_9allocatorIS5_EEEEEC2B8ue170006IRS6_SA_EEOT_OT0_, symObjAddr: 0x2618, symBinAddr: 0x1000061F4, symSize: 0x48 }
  - { offsetInCU: 0xCB6E, offset: 0xCB6E, size: 0x8, addend: 0x0, symName: __ZNSt3__122__compressed_pair_elemIPNS_11__tree_nodeINS_12__value_typeIiiEEPvEELi0ELb0EEC2B8ue170006IRS6_vEEOT_, symObjAddr: 0x2660, symBinAddr: 0x10000623C, symSize: 0x24 }
  - { offsetInCU: 0xCBAF, offset: 0xCBAF, size: 0x8, addend: 0x0, symName: __ZNSt3__122__compressed_pair_elemINS_22__tree_node_destructorINS_9allocatorINS_11__tree_nodeINS_12__value_typeIiiEEPvEEEEEELi1ELb0EEC2B8ue170006IS9_vEEOT_, symObjAddr: 0x2684, symBinAddr: 0x100006260, symSize: 0x24 }
  - { offsetInCU: 0xCBEF, offset: 0xCBEF, size: 0x8, addend: 0x0, symName: __ZNSt3__19allocatorINS_11__tree_nodeINS_12__value_typeIiiEEPvEEE9constructB8ue170006INS_4pairIKiiEEJNS8_IiiEEEEEvPT_DpOT0_, symObjAddr: 0x26A8, symBinAddr: 0x100006284, symSize: 0x30 }
  - { offsetInCU: 0xCC44, offset: 0xCC44, size: 0x8, addend: 0x0, symName: __ZNSt3__14pairIKiiEC1B8ue170006IiiLPv0EEEONS0_IT_T0_EE, symObjAddr: 0x26D8, symBinAddr: 0x1000062B4, symSize: 0x34 }
  - { offsetInCU: 0xCC94, offset: 0xCC94, size: 0x8, addend: 0x0, symName: __ZNSt3__14pairIKiiEC2B8ue170006IiiLPv0EEEONS0_IT_T0_EE, symObjAddr: 0x270C, symBinAddr: 0x1000062E8, symSize: 0x30 }
  - { offsetInCU: 0xCCE3, offset: 0xCCE3, size: 0x8, addend: 0x0, symName: __ZNKSt3__117__compressed_pairIPNS_11__tree_nodeINS_12__value_typeIiiEEPvEENS_22__tree_node_destructorINS_9allocatorIS5_EEEEE5firstB8ue170006Ev, symObjAddr: 0x273C, symBinAddr: 0x100006318, symSize: 0x24 }
  - { offsetInCU: 0xCD08, offset: 0xCD08, size: 0x8, addend: 0x0, symName: __ZNKSt3__122__compressed_pair_elemIPNS_11__tree_nodeINS_12__value_typeIiiEEPvEELi0ELb0EE5__getB8ue170006Ev, symObjAddr: 0x2760, symBinAddr: 0x10000633C, symSize: 0x14 }
  - { offsetInCU: 0xCD2C, offset: 0xCD2C, size: 0x8, addend: 0x0, symName: __ZNSt3__117__compressed_pairIPNS_11__tree_nodeINS_12__value_typeIiiEEPvEENS_22__tree_node_destructorINS_9allocatorIS5_EEEEE6secondB8ue170006Ev, symObjAddr: 0x2774, symBinAddr: 0x100006350, symSize: 0x28 }
  - { offsetInCU: 0xCD51, offset: 0xCD51, size: 0x8, addend: 0x0, symName: __ZNSt3__122__compressed_pair_elemINS_22__tree_node_destructorINS_9allocatorINS_11__tree_nodeINS_12__value_typeIiiEEPvEEEEEELi1ELb0EE5__getB8ue170006Ev, symObjAddr: 0x279C, symBinAddr: 0x100006378, symSize: 0x14 }
  - { offsetInCU: 0xCD75, offset: 0xCD75, size: 0x8, addend: 0x0, symName: __ZNSt3__16__treeINS_12__value_typeIiiEENS_19__map_value_compareIiS2_NS_4lessIiEELb1EEENS_9allocatorIS2_EEE4sizeB8ue170006Ev, symObjAddr: 0x2A2C, symBinAddr: 0x100006608, symSize: 0x28 }
  - { offsetInCU: 0xCD9A, offset: 0xCD9A, size: 0x8, addend: 0x0, symName: __ZNSt3__116__tree_node_baseIPvE12__set_parentB8ue170006EPS2_, symObjAddr: 0x2BF8, symBinAddr: 0x1000067D4, symSize: 0x20 }
  - { offsetInCU: 0xCDCD, offset: 0xCDCD, size: 0x8, addend: 0x0, symName: __ZNSt3__117__compressed_pairImNS_19__map_value_compareIiNS_12__value_typeIiiEENS_4lessIiEELb1EEEE5firstB8ue170006Ev, symObjAddr: 0x2C18, symBinAddr: 0x1000067F4, symSize: 0x24 }
  - { offsetInCU: 0xCDF2, offset: 0xCDF2, size: 0x8, addend: 0x0, symName: __ZNSt3__122__compressed_pair_elemImLi0ELb0EE5__getB8ue170006Ev, symObjAddr: 0x2C3C, symBinAddr: 0x100006818, symSize: 0x14 }
  - { offsetInCU: 0xCE16, offset: 0xCE16, size: 0x8, addend: 0x0, symName: __ZNSt3__117__compressed_pairIPNS_11__tree_nodeINS_12__value_typeIiiEEPvEENS_22__tree_node_destructorINS_9allocatorIS5_EEEEE5firstB8ue170006Ev, symObjAddr: 0x2C50, symBinAddr: 0x10000682C, symSize: 0x24 }
  - { offsetInCU: 0xCE3B, offset: 0xCE3B, size: 0x8, addend: 0x0, symName: __ZNSt3__122__compressed_pair_elemIPNS_11__tree_nodeINS_12__value_typeIiiEEPvEELi0ELb0EE5__getB8ue170006Ev, symObjAddr: 0x2C74, symBinAddr: 0x100006850, symSize: 0x14 }
  - { offsetInCU: 0xCE60, offset: 0xCE60, size: 0x8, addend: 0x0, symName: __ZNSt3__110unique_ptrINS_11__tree_nodeINS_12__value_typeIiiEEPvEENS_22__tree_node_destructorINS_9allocatorIS5_EEEEED2B8ue170006Ev, symObjAddr: 0x2C88, symBinAddr: 0x100006864, symSize: 0x30 }
  - { offsetInCU: 0xCE88, offset: 0xCE88, size: 0x8, addend: 0x0, symName: __ZNSt3__110unique_ptrINS_11__tree_nodeINS_12__value_typeIiiEEPvEENS_22__tree_node_destructorINS_9allocatorIS5_EEEEE5resetB8ue170006EPS5_, symObjAddr: 0x2CB8, symBinAddr: 0x100006894, symSize: 0x78 }
  - { offsetInCU: 0xCECA, offset: 0xCECA, size: 0x8, addend: 0x0, symName: __ZNSt3__122__tree_node_destructorINS_9allocatorINS_11__tree_nodeINS_12__value_typeIiiEEPvEEEEEclB8ue170006EPS6_, symObjAddr: 0x2D30, symBinAddr: 0x10000690C, symSize: 0x88 }
  - { offsetInCU: 0xCEFE, offset: 0xCEFE, size: 0x8, addend: 0x0, symName: __ZNSt3__115__tree_iteratorINS_12__value_typeIiiEEPNS_11__tree_nodeIS2_PvEElEC2B8ue170006ES6_, symObjAddr: 0x2DB8, symBinAddr: 0x100006994, symSize: 0x20 }
  - { offsetInCU: 0xCF36, offset: 0xCF36, size: 0x8, addend: 0x0, symName: __ZNSt3__14pairINS_15__tree_iteratorINS_12__value_typeIiiEEPNS_11__tree_nodeIS3_PvEElEEbEC2B8ue170006IS8_RbLS5_0EEEOT_OT0_, symObjAddr: 0x2DD8, symBinAddr: 0x1000069B4, symSize: 0x38 }
  - { offsetInCU: 0xCF93, offset: 0xCF93, size: 0x8, addend: 0x0, symName: __ZNSt3__14pairINS_14__map_iteratorINS_15__tree_iteratorINS_12__value_typeIiiEEPNS_11__tree_nodeIS4_PvEElEEEEbEC2B8ue170006IS9_bLS6_0EEEONS0_IT_T0_EE, symObjAddr: 0x2E10, symBinAddr: 0x1000069EC, symSize: 0x50 }
  - { offsetInCU: 0xCFE3, offset: 0xCFE3, size: 0x8, addend: 0x0, symName: __ZNSt3__13mapIiiNS_4lessIiEENS_9allocatorINS_4pairIKiiEEEEEC2B8ue170006ERKS8_, symObjAddr: 0x2E60, symBinAddr: 0x100006A3C, symSize: 0x88 }
  - { offsetInCU: 0xD01B, offset: 0xD01B, size: 0x8, addend: 0x0, symName: __ZNSt3__16__treeINS_12__value_typeIiiEENS_19__map_value_compareIiS2_NS_4lessIiEELb1EEENS_9allocatorIS2_EEEC1ERKS9_, symObjAddr: 0x2EE8, symBinAddr: 0x100006AC4, symSize: 0x34 }
  - { offsetInCU: 0xD054, offset: 0xD054, size: 0x8, addend: 0x0, symName: __ZNSt3__13mapIiiNS_4lessIiEENS_9allocatorINS_4pairIKiiEEEEE6insertB8ue170006INS_20__map_const_iteratorINS_21__tree_const_iteratorINS_12__value_typeIiiEEPNS_11__tree_nodeISD_PvEElEEEEEEvT_SK_, symObjAddr: 0x2F1C, symBinAddr: 0x100006AF8, symSize: 0x8C }
  - { offsetInCU: 0xD0BC, offset: 0xD0BC, size: 0x8, addend: 0x0, symName: __ZNKSt3__13mapIiiNS_4lessIiEENS_9allocatorINS_4pairIKiiEEEEE5beginB8ue170006Ev, symObjAddr: 0x2FA8, symBinAddr: 0x100006B84, symSize: 0x38 }
  - { offsetInCU: 0xD0E0, offset: 0xD0E0, size: 0x8, addend: 0x0, symName: __ZNKSt3__13mapIiiNS_4lessIiEENS_9allocatorINS_4pairIKiiEEEEE3endB8ue170006Ev, symObjAddr: 0x2FE0, symBinAddr: 0x100006BBC, symSize: 0x38 }
  - { offsetInCU: 0xD105, offset: 0xD105, size: 0x8, addend: 0x0, symName: __ZNSt3__16__treeINS_12__value_typeIiiEENS_19__map_value_compareIiS2_NS_4lessIiEELb1EEENS_9allocatorIS2_EEEC2ERKS9_, symObjAddr: 0x3018, symBinAddr: 0x100006BF4, symSize: 0x9C }
  - { offsetInCU: 0xD13F, offset: 0xD13F, size: 0x8, addend: 0x0, symName: __ZNSt3__116allocator_traitsINS_9allocatorINS_11__tree_nodeINS_12__value_typeIiiEEPvEEEEE37select_on_container_copy_constructionB8ue170006IS7_vvEES7_RKS7_, symObjAddr: 0x30B4, symBinAddr: 0x100006C90, symSize: 0x10 }
  - { offsetInCU: 0xD16D, offset: 0xD16D, size: 0x8, addend: 0x0, symName: __ZNKSt3__16__treeINS_12__value_typeIiiEENS_19__map_value_compareIiS2_NS_4lessIiEELb1EEENS_9allocatorIS2_EEE12__node_allocB8ue170006Ev, symObjAddr: 0x30C4, symBinAddr: 0x100006CA0, symSize: 0x28 }
  - { offsetInCU: 0xD197, offset: 0xD197, size: 0x8, addend: 0x0, symName: __ZNSt3__117__compressed_pairINS_15__tree_end_nodeIPNS_16__tree_node_baseIPvEEEENS_9allocatorINS_11__tree_nodeINS_12__value_typeIiiEES3_EEEEEC1B8ue170006INS_18__default_init_tagESC_EEOT_OT0_, symObjAddr: 0x30EC, symBinAddr: 0x100006CC8, symSize: 0x3C }
  - { offsetInCU: 0xD1ED, offset: 0xD1ED, size: 0x8, addend: 0x0, symName: __ZNKSt3__16__treeINS_12__value_typeIiiEENS_19__map_value_compareIiS2_NS_4lessIiEELb1EEENS_9allocatorIS2_EEE10value_compB8ue170006Ev, symObjAddr: 0x3128, symBinAddr: 0x100006D04, symSize: 0x28 }
  - { offsetInCU: 0xD211, offset: 0xD211, size: 0x8, addend: 0x0, symName: __ZNKSt3__117__compressed_pairINS_15__tree_end_nodeIPNS_16__tree_node_baseIPvEEEENS_9allocatorINS_11__tree_nodeINS_12__value_typeIiiEES3_EEEEE6secondB8ue170006Ev, symObjAddr: 0x3150, symBinAddr: 0x100006D2C, symSize: 0x24 }
  - { offsetInCU: 0xD236, offset: 0xD236, size: 0x8, addend: 0x0, symName: __ZNKSt3__122__compressed_pair_elemINS_9allocatorINS_11__tree_nodeINS_12__value_typeIiiEEPvEEEELi1ELb1EE5__getB8ue170006Ev, symObjAddr: 0x3174, symBinAddr: 0x100006D50, symSize: 0x14 }
  - { offsetInCU: 0xD25B, offset: 0xD25B, size: 0x8, addend: 0x0, symName: __ZNSt3__117__compressed_pairINS_15__tree_end_nodeIPNS_16__tree_node_baseIPvEEEENS_9allocatorINS_11__tree_nodeINS_12__value_typeIiiEES3_EEEEEC2B8ue170006INS_18__default_init_tagESC_EEOT_OT0_, symObjAddr: 0x3188, symBinAddr: 0x100006D64, symSize: 0x40 }
  - { offsetInCU: 0xD2B2, offset: 0xD2B2, size: 0x8, addend: 0x0, symName: __ZNSt3__122__compressed_pair_elemINS_15__tree_end_nodeIPNS_16__tree_node_baseIPvEEEELi0ELb0EEC2B8ue170006ENS_18__default_init_tagE, symObjAddr: 0x31C8, symBinAddr: 0x100006DA4, symSize: 0x2C }
  - { offsetInCU: 0xD2E5, offset: 0xD2E5, size: 0x8, addend: 0x0, symName: __ZNSt3__122__compressed_pair_elemINS_9allocatorINS_11__tree_nodeINS_12__value_typeIiiEEPvEEEELi1ELb1EEC2B8ue170006IS7_vEEOT_, symObjAddr: 0x31F4, symBinAddr: 0x100006DD0, symSize: 0x18 }
  - { offsetInCU: 0xD325, offset: 0xD325, size: 0x8, addend: 0x0, symName: __ZNKSt3__117__compressed_pairImNS_19__map_value_compareIiNS_12__value_typeIiiEENS_4lessIiEELb1EEEE6secondB8ue170006Ev, symObjAddr: 0x320C, symBinAddr: 0x100006DE8, symSize: 0x24 }
  - { offsetInCU: 0xD34A, offset: 0xD34A, size: 0x8, addend: 0x0, symName: __ZNKSt3__122__compressed_pair_elemINS_19__map_value_compareIiNS_12__value_typeIiiEENS_4lessIiEELb1EEELi1ELb1EE5__getB8ue170006Ev, symObjAddr: 0x3230, symBinAddr: 0x100006E0C, symSize: 0x14 }
  - { offsetInCU: 0xD36E, offset: 0xD36E, size: 0x8, addend: 0x0, symName: __ZNKSt3__13mapIiiNS_4lessIiEENS_9allocatorINS_4pairIKiiEEEEE4cendB8ue170006Ev, symObjAddr: 0x3244, symBinAddr: 0x100006E20, symSize: 0x2C }
  - { offsetInCU: 0xD392, offset: 0xD392, size: 0x8, addend: 0x0, symName: __ZNSt3__13mapIiiNS_4lessIiEENS_9allocatorINS_4pairIKiiEEEEE6insertB8ue170006ENS_20__map_const_iteratorINS_21__tree_const_iteratorINS_12__value_typeIiiEEPNS_11__tree_nodeISC_PvEElEEEERKS6_, symObjAddr: 0x32A0, symBinAddr: 0x100006E7C, symSize: 0x50 }
  - { offsetInCU: 0xD3D5, offset: 0xD3D5, size: 0x8, addend: 0x0, symName: __ZNSt3__120__map_const_iteratorINS_21__tree_const_iteratorINS_12__value_typeIiiEEPNS_11__tree_nodeIS3_PvEElEEEC1B8ue170006ES8_, symObjAddr: 0x32F0, symBinAddr: 0x100006ECC, symSize: 0x34 }
  - { offsetInCU: 0xD40C, offset: 0xD40C, size: 0x8, addend: 0x0, symName: __ZNKSt3__120__map_const_iteratorINS_21__tree_const_iteratorINS_12__value_typeIiiEEPNS_11__tree_nodeIS3_PvEElEEEdeB8ue170006Ev, symObjAddr: 0x3324, symBinAddr: 0x100006F00, symSize: 0x28 }
  - { offsetInCU: 0xD430, offset: 0xD430, size: 0x8, addend: 0x0, symName: __ZNSt3__120__map_const_iteratorINS_21__tree_const_iteratorINS_12__value_typeIiiEEPNS_11__tree_nodeIS3_PvEElEEEppB8ue170006Ev, symObjAddr: 0x334C, symBinAddr: 0x100006F28, symSize: 0x2C }
  - { offsetInCU: 0xD454, offset: 0xD454, size: 0x8, addend: 0x0, symName: __ZNSt3__16__treeINS_12__value_typeIiiEENS_19__map_value_compareIiS2_NS_4lessIiEELb1EEENS_9allocatorIS2_EEE15__insert_uniqueB8ue170006ENS_21__tree_const_iteratorIS2_PNS_11__tree_nodeIS2_PvEElEERKNS_4pairIKiiEE, symObjAddr: 0x33DC, symBinAddr: 0x100006FB8, symSize: 0x64 }
  - { offsetInCU: 0xD497, offset: 0xD497, size: 0x8, addend: 0x0, symName: __ZNSt3__16__treeINS_12__value_typeIiiEENS_19__map_value_compareIiS2_NS_4lessIiEELb1EEENS_9allocatorIS2_EEE30__emplace_hint_unique_key_argsIiJRKNS_4pairIKiiEEEEENSB_INS_15__tree_iteratorIS2_PNS_11__tree_nodeIS2_PvEElEEbEENS_21__tree_const_iteratorIS2_SK_lEERKT_DpOT0_, symObjAddr: 0x3440, symBinAddr: 0x10000701C, symSize: 0x104 }
  - { offsetInCU: 0xD562, offset: 0xD562, size: 0x8, addend: 0x0, symName: __ZNSt3__122__tree_key_value_typesINS_12__value_typeIiiEEE9__get_keyB8ue170006IKNS_4pairIKiiEEEENS_9enable_ifIXsr17__is_same_uncvrefIT_S7_EE5valueERS6_E4typeERSA_, symObjAddr: 0x3544, symBinAddr: 0x100007120, symSize: 0x14 }
  - { offsetInCU: 0xD58F, offset: 0xD58F, size: 0x8, addend: 0x0, symName: __ZNSt3__16__treeINS_12__value_typeIiiEENS_19__map_value_compareIiS2_NS_4lessIiEELb1EEENS_9allocatorIS2_EEE12__find_equalIiEERPNS_16__tree_node_baseIPvEENS_21__tree_const_iteratorIS2_PNS_11__tree_nodeIS2_SC_EElEERPNS_15__tree_end_nodeISE_EESF_RKT_, symObjAddr: 0x3558, symBinAddr: 0x100007134, symSize: 0x304 }
  - { offsetInCU: 0xD637, offset: 0xD637, size: 0x8, addend: 0x0, symName: __ZNSt3__16__treeINS_12__value_typeIiiEENS_19__map_value_compareIiS2_NS_4lessIiEELb1EEENS_9allocatorIS2_EEE16__construct_nodeIJRKNS_4pairIKiiEEEEENS_10unique_ptrINS_11__tree_nodeIS2_PvEENS_22__tree_node_destructorINS7_ISJ_EEEEEEDpOT_, symObjAddr: 0x385C, symBinAddr: 0x100007438, symSize: 0x108 }
  - { offsetInCU: 0xD697, offset: 0xD697, size: 0x8, addend: 0x0, symName: __ZNSt3__121__tree_const_iteratorINS_12__value_typeIiiEEPNS_11__tree_nodeIS2_PvEElEC1B8ue170006ENS_15__tree_iteratorIS2_S6_lEE, symObjAddr: 0x3964, symBinAddr: 0x100007540, symSize: 0x34 }
  - { offsetInCU: 0xD6CE, offset: 0xD6CE, size: 0x8, addend: 0x0, symName: __ZNKSt3__121__tree_const_iteratorINS_12__value_typeIiiEEPNS_11__tree_nodeIS2_PvEElEdeB8ue170006Ev, symObjAddr: 0x3998, symBinAddr: 0x100007574, symSize: 0x28 }
  - { offsetInCU: 0xD6F2, offset: 0xD6F2, size: 0x8, addend: 0x0, symName: __ZNSt3__121__tree_const_iteratorINS_12__value_typeIiiEEPNS_11__tree_nodeIS2_PvEElEmmB8ue170006Ev, symObjAddr: 0x39C0, symBinAddr: 0x10000759C, symSize: 0x38 }
  - { offsetInCU: 0xD717, offset: 0xD717, size: 0x8, addend: 0x0, symName: __ZNKSt3__121__tree_const_iteratorINS_12__value_typeIiiEEPNS_11__tree_nodeIS2_PvEElE8__get_npB8ue170006Ev, symObjAddr: 0x3A34, symBinAddr: 0x100007610, symSize: 0x18 }
  - { offsetInCU: 0xD73C, offset: 0xD73C, size: 0x8, addend: 0x0, symName: __ZNSt3__121__tree_const_iteratorINS_12__value_typeIiiEEPNS_11__tree_nodeIS2_PvEElEC2B8ue170006ENS_15__tree_iteratorIS2_S6_lEE, symObjAddr: 0x3A4C, symBinAddr: 0x100007628, symSize: 0x20 }
  - { offsetInCU: 0xD773, offset: 0xD773, size: 0x8, addend: 0x0, symName: __ZNSt3__121__tree_const_iteratorINS_12__value_typeIiiEEPNS_11__tree_nodeIS2_PvEElEppB8ue170006Ev, symObjAddr: 0x3C24, symBinAddr: 0x100007800, symSize: 0x38 }
  - { offsetInCU: 0xD798, offset: 0xD798, size: 0x8, addend: 0x0, symName: __ZNSt3__116allocator_traitsINS_9allocatorINS_11__tree_nodeINS_12__value_typeIiiEEPvEEEEE9constructB8ue170006INS_4pairIKiiEEJRKSC_EvEEvRS7_PT_DpOT0_, symObjAddr: 0x3C5C, symBinAddr: 0x100007838, symSize: 0x34 }
  - { offsetInCU: 0xD7EF, offset: 0xD7EF, size: 0x8, addend: 0x0, symName: __ZNSt3__19allocatorINS_11__tree_nodeINS_12__value_typeIiiEEPvEEE9constructB8ue170006INS_4pairIKiiEEJRKSA_EEEvPT_DpOT0_, symObjAddr: 0x3C90, symBinAddr: 0x10000786C, symSize: 0x28 }
  - { offsetInCU: 0xD844, offset: 0xD844, size: 0x8, addend: 0x0, symName: __ZNSt3__120__map_const_iteratorINS_21__tree_const_iteratorINS_12__value_typeIiiEEPNS_11__tree_nodeIS3_PvEElEEEC2B8ue170006ES8_, symObjAddr: 0x3CB8, symBinAddr: 0x100007894, symSize: 0x20 }
  - { offsetInCU: 0xD87B, offset: 0xD87B, size: 0x8, addend: 0x0, symName: __ZNKSt3__121__tree_const_iteratorINS_12__value_typeIiiEEPNS_11__tree_nodeIS2_PvEElEptB8ue170006Ev, symObjAddr: 0x3CD8, symBinAddr: 0x1000078B4, symSize: 0x2C }
  - { offsetInCU: 0xD8A0, offset: 0xD8A0, size: 0x8, addend: 0x0, symName: __ZNSt3__114pointer_traitsIPKNS_12__value_typeIiiEEE10pointer_toB8ue170006ERS3_, symObjAddr: 0x3D04, symBinAddr: 0x1000078E0, symSize: 0x14 }
  - { offsetInCU: 0xD8C2, offset: 0xD8C2, size: 0x8, addend: 0x0, symName: __ZNKSt3__16__treeINS_12__value_typeIiiEENS_19__map_value_compareIiS2_NS_4lessIiEELb1EEENS_9allocatorIS2_EEE5beginB8ue170006Ev, symObjAddr: 0x3D18, symBinAddr: 0x1000078F4, symSize: 0x34 }
  - { offsetInCU: 0xD8E7, offset: 0xD8E7, size: 0x8, addend: 0x0, symName: __ZNKSt3__16__treeINS_12__value_typeIiiEENS_19__map_value_compareIiS2_NS_4lessIiEELb1EEENS_9allocatorIS2_EEE12__begin_nodeB8ue170006Ev, symObjAddr: 0x3D4C, symBinAddr: 0x100007928, symSize: 0x14 }
  - { offsetInCU: 0xD90C, offset: 0xD90C, size: 0x8, addend: 0x0, symName: __ZNSt3__121__tree_const_iteratorINS_12__value_typeIiiEEPNS_11__tree_nodeIS2_PvEElEC1B8ue170006EPNS_15__tree_end_nodeIPNS_16__tree_node_baseIS4_EEEE, symObjAddr: 0x3D60, symBinAddr: 0x10000793C, symSize: 0x34 }
  - { offsetInCU: 0xD944, offset: 0xD944, size: 0x8, addend: 0x0, symName: __ZNSt3__121__tree_const_iteratorINS_12__value_typeIiiEEPNS_11__tree_nodeIS2_PvEElEC2B8ue170006EPNS_15__tree_end_nodeIPNS_16__tree_node_baseIS4_EEEE, symObjAddr: 0x3D94, symBinAddr: 0x100007970, symSize: 0x20 }
  - { offsetInCU: 0xD97B, offset: 0xD97B, size: 0x8, addend: 0x0, symName: __ZNKSt3__16__treeINS_12__value_typeIiiEENS_19__map_value_compareIiS2_NS_4lessIiEELb1EEENS_9allocatorIS2_EEE3endB8ue170006Ev, symObjAddr: 0x3DB4, symBinAddr: 0x100007990, symSize: 0x34 }
...
